target datalayout = "e-m:e-p270:32:32-p271:32:32-p272:64:64-i64:64-i128:128-f80:128-n8:16:32:64-S128"
target triple = "x86_64-pc-linux-gnu"

%struct.Agattr_s = type { %struct.Agrec_s, ptr, ptr }
%struct.Agrec_s = type { ptr, ptr }

@DataDictName = internal global [13 x i8] c"_AG_datadict\00", align 1
@AgDataRecName = global ptr @.str, align 8

; Function Attrs: nounwind uwtable
define ptr @agattrrec(ptr noundef %0) #0 {
  %2 = alloca ptr, align 8
  store ptr %0, ptr %2, align 8, !tbaa !3
  %3 = load ptr, ptr %2, align 8, !tbaa !3
  %4 = load ptr, ptr @AgDataRecName, align 8, !tbaa !31
  %5 = call ptr @aggetrec(ptr noundef %3, ptr noundef %4, i32 noundef 0)
  ret ptr %5
}

; Function Attrs: nounwind uwtable
define void @agedgeattr_init(ptr noundef %0, ptr noundef %1) #0 {
  %3 = alloca ptr, align 8
  %4 = alloca ptr, align 8
  %5 = alloca ptr, align 8
  store ptr %0, ptr %3, align 8, !tbaa !9
  store ptr %1, ptr %4, align 8, !tbaa !26
  call void @llvm.lifetime.start.p0(i64 8, ptr %5) #11
  %6 = load ptr, ptr %4, align 8, !tbaa !26
  %7 = call ptr @agattrrec(ptr noundef %6)
  store ptr %7, ptr %5, align 8, !tbaa !32
  %8 = load ptr, ptr %5, align 8, !tbaa !32
  %9 = icmp ne ptr %8, null
  br i1 %9, label %10, label %15

10:                                               ; preds = %2
  %11 = load ptr, ptr %5, align 8, !tbaa !32
  %12 = getelementptr inbounds nuw %struct.Agattr_s, ptr %11, i32 0, i32 1
  %13 = load ptr, ptr %12, align 8, !tbaa !34
  %14 = icmp ne ptr %13, null
  br i1 %14, label %19, label %15

15:                                               ; preds = %10, %2
  %16 = load ptr, ptr %3, align 8, !tbaa !9
  %17 = load ptr, ptr %4, align 8, !tbaa !26
  %18 = call ptr @agmakeattrs(ptr noundef %16, ptr noundef %17)
  br label %19

19:                                               ; preds = %15, %10
  call void @llvm.lifetime.end.p0(i64 8, ptr %5) #11
  ret void
}

; Function Attrs: nounwind uwtable
define void @agnodeattr_init(ptr noundef %0, ptr noundef %1) #0 {
  %3 = alloca ptr, align 8
  %4 = alloca ptr, align 8
  %5 = alloca ptr, align 8
  store ptr %0, ptr %3, align 8, !tbaa !9
  store ptr %1, ptr %4, align 8, !tbaa !24
  call void @llvm.lifetime.start.p0(i64 8, ptr %5) #11
  %6 = load ptr, ptr %4, align 8, !tbaa !24
  %7 = call ptr @agattrrec(ptr noundef %6)
  store ptr %7, ptr %5, align 8, !tbaa !32
  %8 = load ptr, ptr %5, align 8, !tbaa !32
  %9 = icmp ne ptr %8, null
  br i1 %9, label %10, label %15

10:                                               ; preds = %2
  %11 = load ptr, ptr %5, align 8, !tbaa !32
  %12 = getelementptr inbounds nuw %struct.Agattr_s, ptr %11, i32 0, i32 1
  %13 = load ptr, ptr %12, align 8, !tbaa !34
  %14 = icmp ne ptr %13, null
  br i1 %14, label %19, label %15

15:                                               ; preds = %10, %2
  %16 = load ptr, ptr %3, align 8, !tbaa !9
  %17 = load ptr, ptr %4, align 8, !tbaa !24
  %18 = call ptr @agmakeattrs(ptr noundef %16, ptr noundef %17)
  br label %19

19:                                               ; preds = %15, %10
  call void @llvm.lifetime.end.p0(i64 8, ptr %5) #11
  ret void
}

; Function Attrs: nounwind uwtable
define internal void @init_all_attrs(ptr noundef %0) #0 {
  %2 = alloca ptr, align 8
  %3 = alloca ptr, align 8
  %4 = alloca ptr, align 8
  %5 = alloca ptr, align 8
  store ptr %0, ptr %2, align 8, !tbaa !9
  call void @llvm.lifetime.start.p0(i64 8, ptr %3) #11
  call void @llvm.lifetime.start.p0(i64 8, ptr %4) #11
  call void @llvm.lifetime.start.p0(i64 8, ptr %5) #11
  %6 = load ptr, ptr %2, align 8, !tbaa !9
  %7 = call ptr @agroot(ptr noundef %6)
  store ptr %7, ptr %3, align 8, !tbaa !9
  %8 = load ptr, ptr %3, align 8, !tbaa !9
  %9 = load ptr, ptr %3, align 8, !tbaa !9
  %10 = call i32 @agapply(ptr noundef %8, ptr noundef %9, ptr noundef @agraphattr_init_wrapper, ptr noundef null, i32 noundef 1)
  %11 = load ptr, ptr %3, align 8, !tbaa !9
  %12 = call ptr @agfstnode(ptr noundef %11)
  store ptr %12, ptr %4, align 8, !tbaa !24
  br label %13

13:                                               ; preds = %33, %1
  %14 = load ptr, ptr %4, align 8, !tbaa !24
  %15 = icmp ne ptr %14, null
  br i1 %15, label %16, label %37

16:                                               ; preds = %13
  %17 = load ptr, ptr %2, align 8, !tbaa !9
  %18 = load ptr, ptr %4, align 8, !tbaa !24
  call void @agnodeattr_init(ptr noundef %17, ptr noundef %18)
  %19 = load ptr, ptr %3, align 8, !tbaa !9
  %20 = load ptr, ptr %4, align 8, !tbaa !24
  %21 = call ptr @agfstout(ptr noundef %19, ptr noundef %20)
  store ptr %21, ptr %5, align 8, !tbaa !26
  br label %22

22:                                               ; preds = %28, %16
  %23 = load ptr, ptr %5, align 8, !tbaa !26
  %24 = icmp ne ptr %23, null
  br i1 %24, label %25, label %32

25:                                               ; preds = %22
  %26 = load ptr, ptr %2, align 8, !tbaa !9
  %27 = load ptr, ptr %5, align 8, !tbaa !26
  call void @agedgeattr_init(ptr noundef %26, ptr noundef %27)
  br label %28

28:                                               ; preds = %25
  %29 = load ptr, ptr %3, align 8, !tbaa !9
  %30 = load ptr, ptr %5, align 8, !tbaa !26
  %31 = call ptr @agnxtout(ptr noundef %29, ptr noundef %30)
  store ptr %31, ptr %5, align 8, !tbaa !26
  br label %22, !llvm.loop !28

32:                                               ; preds = %22
  br label %33

33:                                               ; preds = %32
  %34 = load ptr, ptr %3, align 8, !tbaa !9
  %35 = load ptr, ptr %4, align 8, !tbaa !24
  %36 = call ptr @agnxtnode(ptr noundef %34, ptr noundef %35)
  store ptr %36, ptr %4, align 8, !tbaa !24
  br label %13, !llvm.loop !30

37:                                               ; preds = %13
  call void @llvm.lifetime.end.p0(i64 8, ptr %5) #11
  call void @llvm.lifetime.end.p0(i64 8, ptr %4) #11
  call void @llvm.lifetime.end.p0(i64 8, ptr %3) #11
  ret void
}

; Function Attrs: nounwind uwtable
define ptr @agdatadict(ptr noundef %0, i1 noundef zeroext %1) #0 {
  %3 = alloca ptr, align 8
  %4 = alloca ptr, align 8
  %5 = alloca i8, align 1
  %6 = alloca ptr, align 8
  %7 = alloca i32, align 4
  store ptr %0, ptr %4, align 8, !tbaa !9
  %8 = zext i1 %1 to i8
  store i8 %8, ptr %5, align 1, !tbaa !18
  call void @llvm.lifetime.start.p0(i64 8, ptr %6) #11
  %9 = load ptr, ptr %4, align 8, !tbaa !9
  %10 = call ptr @aggetrec(ptr noundef %9, ptr noundef @DataDictName, i32 noundef 0)
  store ptr %10, ptr %6, align 8, !tbaa !20
  %11 = load ptr, ptr %6, align 8, !tbaa !20
  %12 = icmp ne ptr %11, null
  br i1 %12, label %16, label %13

13:                                               ; preds = %2
  %14 = load i8, ptr %5, align 1, !tbaa !18, !range !22, !noundef !23
  %15 = trunc i8 %14 to i1
  br i1 %15, label %18, label %16

16:                                               ; preds = %13, %2
  %17 = load ptr, ptr %6, align 8, !tbaa !20
  store ptr %17, ptr %3, align 8
  store i32 1, ptr %7, align 4
  br label %23

18:                                               ; preds = %13
  %19 = load ptr, ptr %4, align 8, !tbaa !9
  call void @init_all_attrs(ptr noundef %19)
  %20 = load ptr, ptr %4, align 8, !tbaa !9
  %21 = call ptr @aggetrec(ptr noundef %20, ptr noundef @DataDictName, i32 noundef 0)
  store ptr %21, ptr %6, align 8, !tbaa !20
  %22 = load ptr, ptr %6, align 8, !tbaa !20
  store ptr %22, ptr %3, align 8
  store i32 1, ptr %7, align 4
  br label %23

23:                                               ; preds = %18, %16
  call void @llvm.lifetime.end.p0(i64 8, ptr %6) #11
  %24 = load ptr, ptr %3, align 8
  ret ptr %24
}