; Function Attrs: nounwind uwtable
define ptr @agdatadict(ptr noundef %0, i1 noundef zeroext %1) local_unnamed_addr #0 {
  %3 = tail call ptr @aggetrec(ptr noundef %0, ptr noundef nonnull @DataDictName, i32 noundef 0) #12
  %.not = icmp eq ptr %3, null
  %brmerge.not = and i1 %1, %.not
  br i1 %brmerge.not, label %4, label %24

4:                                                ; preds = %2
  %5 = tail call ptr @agroot(ptr noundef %0) #12
  %6 = tail call i32 @agapply(ptr noundef %5, ptr noundef %5, ptr noundef nonnull @agraphattr_init_wrapper, ptr noundef null, i32 noundef 1) #12
  %7 = tail call ptr @agfstnode(ptr noundef %5) #12
  %.not.i13 = icmp eq ptr %7, null
  br i1 %.not.i13, label %init_all_attrs.exit, label %.lr.ph16

.lr.ph16:                                         ; preds = %4, %._crit_edge
  %.016.i14 = phi ptr [ %22, %._crit_edge ], [ %7, %4 ]
  %8 = load ptr, ptr @AgDataRecName, align 8, !tbaa !15
  %9 = tail call ptr @aggetrec(ptr noundef nonnull %.016.i14, ptr noundef %8, i32 noundef 0) #12
  %.not.i8 = icmp eq ptr %9, null
  br i1 %.not.i8, label %13, label %10

10:                                               ; preds = %.lr.ph16
  %11 = getelementptr inbounds nuw i8, ptr %9, i64 16
  %12 = load ptr, ptr %11, align 8, !tbaa !16
  %.not5.i = icmp eq ptr %12, null
  br i1 %.not5.i, label %13, label %agnodeattr_init.exit

13:                                               ; preds = %10, %.lr.ph16
  tail call fastcc void @agmakeattrs(ptr noundef %0, ptr noundef nonnull %.016.i14)
  br label %agnodeattr_init.exit

agnodeattr_init.exit:                             ; preds = %10, %13
  %14 = tail call ptr @agfstout(ptr noundef %5, ptr noundef nonnull %.016.i14) #12
  %.not17.i11 = icmp eq ptr %14, null
  br i1 %.not17.i11, label %._crit_edge, label %.lr.ph

.lr.ph:                                           ; preds = %agnodeattr_init.exit, %agedgeattr_init.exit
  %.0.i12 = phi ptr [ %21, %agedgeattr_init.exit ], [ %14, %agnodeattr_init.exit ]
  %15 = load ptr, ptr @AgDataRecName, align 8, !tbaa !15
  %16 = tail call ptr @aggetrec(ptr noundef nonnull %.0.i12, ptr noundef %15, i32 noundef 0) #12
  %.not.i9 = icmp eq ptr %16, null
  br i1 %.not.i9, label %20, label %17

17:                                               ; preds = %.lr.ph
  %18 = getelementptr inbounds nuw i8, ptr %16, i64 16
  %19 = load ptr, ptr %18, align 8, !tbaa !16
  %.not5.i10 = icmp eq ptr %19, null
  br i1 %.not5.i10, label %20, label %agedgeattr_init.exit

20:                                               ; preds = %17, %.lr.ph
  tail call fastcc void @agmakeattrs(ptr noundef %0, ptr noundef nonnull %.0.i12)
  br label %agedgeattr_init.exit

agedgeattr_init.exit:                             ; preds = %17, %20
  %21 = tail call ptr @agnxtout(ptr noundef %5, ptr noundef nonnull %.0.i12) #12
  %.not17.i = icmp eq ptr %21, null
  br i1 %.not17.i, label %._crit_edge, label %.lr.ph, !llvm.loop !22

._crit_edge:                                      ; preds = %agedgeattr_init.exit, %agnodeattr_init.exit
  %22 = tail call ptr @agnxtnode(ptr noundef %5, ptr noundef nonnull %.016.i14) #12
  %.not.i = icmp eq ptr %22, null
  br i1 %.not.i, label %init_all_attrs.exit, label %.lr.ph16, !llvm.loop !24

init_all_attrs.exit:                              ; preds = %._crit_edge, %4
  %23 = tail call ptr @aggetrec(ptr noundef %0, ptr noundef nonnull @DataDictName, i32 noundef 0) #12
  br label %24

24:                                               ; preds = %2, %init_all_attrs.exit
  %.0 = phi ptr [ %23, %init_all_attrs.exit ], [ %3, %2 ]
  ret ptr %.0
}